; Function Attrs: mustprogress uwtable
define internal void @_ZL20C_A_T_C_H_T_E_S_T_44v() #1 personality ptr @__gxx_personality_v0 {
  %1 = alloca %"class.Catch::UnaryExpr", align 8
  %2 = alloca %"class.Catch::AssertionHandler", align 8
  %3 = alloca %"class.Catch::StringRef", align 8
  %4 = alloca %"struct.Catch::SourceLineInfo", align 8
  %5 = alloca %"class.Catch::StringRef", align 8
  call void @llvm.lifetime.start.p0(i64 72, ptr nonnull %2) #22
  call void @llvm.lifetime.start.p0(i64 16, ptr nonnull %3) #22
  store ptr @.str.97, ptr %3, align 8
  %6 = getelementptr inbounds nuw i8, ptr %3, i64 8
  store i64 13, ptr %6, align 8
  call void @llvm.lifetime.start.p0(i64 16, ptr nonnull %4) #22
  store ptr @.str, ptr %4, align 8, !tbaa !4
  %7 = getelementptr inbounds nuw i8, ptr %4, i64 8
  store i64 1229, ptr %7, align 8, !tbaa !11
  call void @_ZN5Catch9StringRefC1EPKc(ptr noundef nonnull align 8 dereferenceable(16) %5, ptr noundef nonnull @.str.386) #22
  %8 = call noundef i32 @_ZN5CatchorENS_17ResultDisposition5FlagsES1_(i32 noundef 1, i32 noundef 4)
  %9 = load ptr, ptr %5, align 8
  %10 = getelementptr inbounds nuw i8, ptr %5, i64 8
  %11 = load i64, ptr %10, align 8
  call void @_ZN5Catch16AssertionHandlerC1ERKNS_9StringRefERKNS_14SourceLineInfoES1_NS_17ResultDisposition5FlagsE(ptr noundef nonnull align 8 dereferenceable(72) %2, ptr noundef nonnull align 8 dereferenceable(16) %3, ptr noundef nonnull align 8 dereferenceable(16) %4, ptr %9, i64 %11, i32 noundef %8)
  call void @llvm.lifetime.end.p0(i64 16, ptr nonnull %4) #22
  call void @llvm.lifetime.end.p0(i64 16, ptr nonnull %3) #22
  %12 = invoke fastcc noundef zeroext i1 @_ZL25port_manifest_is_parsableN5vcpkg10StringViewE(ptr nonnull @.str.387, i64 84)
          to label %13 unwind label %21

13:                                               ; preds = %0
  %14 = zext i1 %12 to i8
  call void @llvm.lifetime.start.p0(i64 16, ptr nonnull %1) #22
  %15 = getelementptr inbounds nuw i8, ptr %1, i64 8
  store i8 0, ptr %15, align 8, !tbaa !17, !alias.scope !923
  %16 = getelementptr inbounds nuw i8, ptr %1, i64 9
  store i8 %14, ptr %16, align 1, !tbaa !22, !alias.scope !923
  store ptr getelementptr inbounds nuw inrange(-16, 24) (i8, ptr @_ZTVN5Catch9UnaryExprIbEE, i64 16), ptr %1, align 8, !tbaa !23, !alias.scope !923
  %17 = getelementptr inbounds nuw i8, ptr %1, i64 10
  store i8 %14, ptr %17, align 2, !tbaa !25, !alias.scope !923
  invoke void @_ZN5Catch16AssertionHandler10handleExprERKNS_20ITransientExpressionE(ptr noundef nonnull align 8 dereferenceable(72) %2, ptr noundef nonnull align 8 dereferenceable(10) %1)
          to label %20 unwind label %18

18:                                               ; preds = %13
  %19 = landingpad { ptr, i32 }
          catch ptr null
  call void @_ZN5Catch20ITransientExpressionD2Ev(ptr noundef nonnull align 8 dereferenceable(11) %1) #22
  call void @llvm.lifetime.end.p0(i64 16, ptr nonnull %1) #22
  br label %.body

20:                                               ; preds = %13
  call void @_ZN5Catch20ITransientExpressionD2Ev(ptr noundef nonnull align 8 dereferenceable(11) %1) #22
  call void @llvm.lifetime.end.p0(i64 16, ptr nonnull %1) #22
  br label %26

21:                                               ; preds = %0
  %22 = landingpad { ptr, i32 }
          catch ptr null
  br label %.body

.body:                                            ; preds = %18, %21
  %eh.lpad-body = phi { ptr, i32 } [ %22, %21 ], [ %19, %18 ]
  %23 = extractvalue { ptr, i32 } %eh.lpad-body, 0
  %24 = call ptr @__cxa_begin_catch(ptr %23) #22
  invoke void @_ZN5Catch16AssertionHandler33handleUnexpectedInflightExceptionEv(ptr noundef nonnull align 8 dereferenceable(72) %2)
          to label %25 unwind label %40

25:                                               ; preds = %.body
  invoke void @__cxa_end_catch()
          to label %26 unwind label %42

26:                                               ; preds = %25, %20
  invoke void @_ZN5Catch16AssertionHandler8completeEv(ptr noundef nonnull align 8 dereferenceable(72) %2)
          to label %27 unwind label %42

27:                                               ; preds = %26
  %28 = getelementptr inbounds nuw i8, ptr %2, i64 58
  %29 = load i8, ptr %28, align 2, !tbaa !27, !range !15, !noundef !16
  %30 = trunc nuw i8 %29 to i1
  br i1 %30, label %_ZN5Catch16AssertionHandlerD2Ev.exit, label %31

31:                                               ; preds = %27
  %32 = getelementptr inbounds nuw i8, ptr %2, i64 64
  %33 = load ptr, ptr %32, align 8, !tbaa !34
  %34 = load ptr, ptr %33, align 8, !tbaa !23
  %35 = getelementptr inbounds nuw i8, ptr %34, i64 112
  %36 = load ptr, ptr %35, align 8
  invoke void %36(ptr noundef nonnull align 8 dereferenceable(8) %33, ptr noundef nonnull align 8 dereferenceable(72) %2)
          to label %_ZN5Catch16AssertionHandlerD2Ev.exit unwind label %37

37:                                               ; preds = %31
  %38 = landingpad { ptr, i32 }
          catch ptr null
  %39 = extractvalue { ptr, i32 } %38, 0
  call void @__clang_call_terminate(ptr %39) #23
  unreachable

_ZN5Catch16AssertionHandlerD2Ev.exit:             ; preds = %27, %31
  call void @llvm.lifetime.end.p0(i64 72, ptr nonnull %2) #22
  ret void

40:                                               ; preds = %.body
  %41 = landingpad { ptr, i32 }
          cleanup
  invoke void @__cxa_end_catch()
          to label %44 unwind label %45

42:                                               ; preds = %26, %25
  %43 = landingpad { ptr, i32 }
          cleanup
  br label %44

44:                                               ; preds = %40, %42
  %.pn = phi { ptr, i32 } [ %43, %42 ], [ %41, %40 ]
  call void @_ZN5Catch16AssertionHandlerD2Ev(ptr noundef nonnull align 8 dereferenceable(72) %2) #22
  call void @llvm.lifetime.end.p0(i64 72, ptr nonnull %2) #22
  resume { ptr, i32 } %.pn

45:                                               ; preds = %40
  %46 = landingpad { ptr, i32 }
          catch ptr null
  %47 = extractvalue { ptr, i32 } %46, 0
  call void @__clang_call_terminate(ptr %47) #23
  unreachable
}